target datalayout = "e-m:e-p270:32:32-p271:32:32-p272:64:64-i64:64-i128:128-f80:128-n8:16:32:64-S128"
target triple = "x86_64-pc-linux-gnu"

; Function Attrs: mustprogress uwtable
define dso_local noundef zeroext i1 @_ZN18cmParsePHPCoverage9ReadUntilERSic(ptr noundef nonnull align 8 dereferenceable(16) %0, ptr noundef nonnull align 8 dereferenceable(16) %1, i8 noundef signext %2) #5 align 2 {
  %4 = alloca ptr, align 8
  %5 = alloca ptr, align 8
  %6 = alloca i8, align 1
  %7 = alloca i8, align 1
  store ptr %0, ptr %4, align 8
  store ptr %1, ptr %5, align 8
  store i8 %2, ptr %6, align 1
  store i8 0, ptr %7, align 1
  br label %8

8:                                                ; preds = %24, %3
  %9 = load ptr, ptr %5, align 8
  %10 = call noundef nonnull align 8 dereferenceable(16) ptr @_ZNSi3getERc(ptr noundef nonnull align 8 dereferenceable(16) %9, ptr noundef nonnull align 1 dereferenceable(1) %7)
  %11 = load ptr, ptr %10, align 8
  %12 = getelementptr i8, ptr %11, i64 -24
  %13 = load i64, ptr %12, align 8
  %14 = getelementptr inbounds i8, ptr %10, i64 %13
  %15 = call noundef zeroext i1 @_ZNKSt9basic_iosIcSt11char_traitsIcEEcvbEv(ptr noundef nonnull align 8 dereferenceable(264) %14)
  br i1 %15, label %16, label %22

16:                                               ; preds = %8
  %17 = load i8, ptr %7, align 1
  %18 = sext i8 %17 to i32
  %19 = load i8, ptr %6, align 1
  %20 = sext i8 %19 to i32
  %21 = icmp ne i32 %18, %20
  br label %22

22:                                               ; preds = %16, %8
  %23 = phi i1 [ false, %8 ], [ %21, %16 ]
  br i1 %23, label %24, label %25

24:                                               ; preds = %22
  br label %8, !llvm.loop !5

25:                                               ; preds = %22
  %26 = load i8, ptr %7, align 1
  %27 = sext i8 %26 to i32
  %28 = load i8, ptr %6, align 1
  %29 = sext i8 %28 to i32
  %30 = icmp eq i32 %27, %29
  ret i1 %30
}