; Function Attrs: mustprogress uwtable
define dso_local noundef zeroext i1 @_ZN18cmParsePHPCoverage9ReadUntilERSic(ptr noundef nonnull readnone align 8 captures(none) dereferenceable(16) %0, ptr noundef nonnull align 8 dereferenceable(16) %1, i8 noundef signext %2) local_unnamed_addr #4 align 2 {
  %4 = alloca i8, align 1
  store i8 0, ptr %4, align 1
  br label %5

5:                                                ; preds = %5, %3
  %6 = call noundef nonnull align 8 dereferenceable(16) ptr @_ZNSi3getERc(ptr noundef nonnull align 8 dereferenceable(16) %1, ptr noundef nonnull align 1 dereferenceable(1) %4)
  %7 = load ptr, ptr %6, align 8
  %8 = getelementptr i8, ptr %7, i64 -24
  %9 = load i64, ptr %8, align 8
  %10 = getelementptr inbounds i8, ptr %6, i64 %9
  %11 = call noundef zeroext i1 @_ZNKSt9basic_iosIcSt11char_traitsIcEEcvbEv(ptr noundef nonnull align 8 dereferenceable(264) %10)
  %12 = load i8, ptr %4, align 1
  %13 = icmp ne i8 %12, %2
  %14 = select i1 %11, i1 %13, i1 false
  br i1 %14, label %5, label %15, !llvm.loop !5

15:                                               ; preds = %5
  %16 = icmp eq i8 %12, %2
  ret i1 %16
}